; Function Attrs: mustprogress nofree norecurse nosync nounwind willreturn memory(readwrite, inaccessiblemem: none) uwtable
define noundef i32 @uv_check_stop(ptr noundef captures(none) %handle) local_unnamed_addr #1 {
entry:
  %flags = getelementptr inbounds nuw i8, ptr %handle, i64 88
  %0 = load i32, ptr %flags, align 8
  %and = and i32 %0, 4
  %cmp.not = icmp eq i32 %and, 0
  br i1 %cmp.not, label %return, label %if.end

if.end:                                           ; preds = %entry
  %queue = getelementptr inbounds nuw i8, ptr %handle, i64 104
  %1 = load ptr, ptr %queue, align 8
  %prev.i = getelementptr inbounds nuw i8, ptr %handle, i64 112
  %2 = load ptr, ptr %prev.i, align 8
  store ptr %1, ptr %2, align 8
  %3 = load ptr, ptr %prev.i, align 8
  %prev4.i = getelementptr inbounds nuw i8, ptr %1, i64 8
  store ptr %3, ptr %prev4.i, align 8
  %4 = load i32, ptr %flags, align 8
  %and2 = and i32 %4, 4
  %cmp3 = icmp eq i32 %and2, 0
  br i1 %cmp3, label %return, label %if.end5

if.end5:                                          ; preds = %if.end
  %and7 = and i32 %4, -5
  store i32 %and7, ptr %flags, align 8
  %and9 = and i32 %4, 8
  %cmp10.not = icmp eq i32 %and9, 0
  br i1 %cmp10.not, label %return, label %do.body12

do.body12:                                        ; preds = %if.end5
  %loop = getelementptr inbounds nuw i8, ptr %handle, i64 8
  %5 = load ptr, ptr %loop, align 8
  %active_handles = getelementptr inbounds nuw i8, ptr %5, i64 8
  %6 = load i32, ptr %active_handles, align 8
  %dec = add i32 %6, -1
  store i32 %dec, ptr %active_handles, align 8
  br label %return

return:                                           ; preds = %if.end, %do.body12, %if.end5, %entry
  ret i32 0
}